ccopy_reg
_reconstructor
p0
(csklearn.preprocessing.label
LabelEncoder
p1
c__builtin__
object
p2
Ntp3
Rp4
(dp5
S'classes_'
p6
cnumpy.core.multiarray
_reconstruct
p7
(cnumpy
ndarray
p8
(I0
tp9
S'b'
p10
tp11
Rp12
(I1
(I9
tp13
cnumpy
dtype
p14
(S'O8'
p15
I0
I1
tp16
Rp17
(I3
S'|'
p18
NNNI-1
I-1
I63
tp19
bI00
(lp20
S'Android Phone'
p21
aS'Android Tablet'
p22
aS'Desktop (Other)'
p23
aS'Mac Desktop'
p24
aS'Other/Unknown'
p25
aS'SmartPhone (Other)'
p26
aS'Windows Desktop'
p27
aS'iPad'
p28
aS'iPhone'
p29
atp30
bsb.