ccopy_reg
_reconstructor
p0
(csklearn.preprocessing.label
LabelEncoder
p1
c__builtin__
object
p2
Ntp3
Rp4
(dp5
S'classes_'
p6
cnumpy.core.multiarray
_reconstruct
p7
(cnumpy
ndarray
p8
(I0
tp9
S'b'
p10
tp11
Rp12
(I1
(I14
tp13
cnumpy
dtype
p14
(S'O8'
p15
I0
I1
tp16
Rp17
(I3
S'|'
p18
NNNI-1
I-1
I63
tp19
bI00
(lp20
S'Android App Unknown Phone/Tablet'
p21
aS'Android Phone'
p22
aS'Blackberry'
p23
aS'Chromebook'
p24
aS'Linux Desktop'
p25
aS'Mac Desktop'
p26
aS'Opera Phone'
p27
aS'Tablet'
p28
aS'Windows Desktop'
p29
aS'Windows Phone'
p30
aS'iPad Tablet'
p31
aS'iPhone'
p32
aS'iPodtouch'
p33
aS'undef'
p34
atp35
bsb.