ccopy_reg
_reconstructor
p0
(csklearn.preprocessing.label
LabelEncoder
p1
c__builtin__
object
p2
Ntp3
Rp4
(dp5
S'classes_'
p6
cnumpy.core.multiarray
_reconstruct
p7
(cnumpy
ndarray
p8
(I0
tp9
S'b'
p10
tp11
Rp12
(I1
(I12
tp13
cnumpy
dtype
p14
(S'O8'
p15
I0
I1
tp16
Rp17
(I3
S'|'
p18
NNNI-1
I-1
I63
tp19
bI00
(lp20
S'AU'
p21
aS'CA'
p22
aS'DE'
p23
aS'ES'
p24
aS'FR'
p25
aS'GB'
p26
aS'IT'
p27
aS'NDF'
p28
aS'NL'
p29
aS'PT'
p30
aS'US'
p31
aS'other'
p32
atp33
bsb.