ccopy_reg
_reconstructor
p0
(csklearn.preprocessing.label
LabelEncoder
p1
c__builtin__
object
p2
Ntp3
Rp4
(dp5
S'classes_'
p6
cnumpy.core.multiarray
_reconstruct
p7
(cnumpy
ndarray
p8
(I0
tp9
S'b'
p10
tp11
Rp12
(I1
(I18
tp13
cnumpy
dtype
p14
(S'O8'
p15
I0
I1
tp16
Rp17
(I3
S'|'
p18
NNNI-1
I-1
I63
tp19
bI00
(lp20
S'baidu'
p21
aS'bing'
p22
aS'craigslist'
p23
aS'daum'
p24
aS'direct'
p25
aS'email-marketing'
p26
aS'facebook'
p27
aS'facebook-open-graph'
p28
aS'google'
p29
aS'gsp'
p30
aS'meetup'
p31
aS'naver'
p32
aS'other'
p33
aS'padmapper'
p34
aS'vast'
p35
aS'wayn'
p36
aS'yahoo'
p37
aS'yandex'
p38
atp39
bsb.