ccopy_reg
_reconstructor
p0
(csklearn.preprocessing.label
LabelEncoder
p1
c__builtin__
object
p2
Ntp3
Rp4
(dp5
S'classes_'
p6
cnumpy.core.multiarray
_reconstruct
p7
(cnumpy
ndarray
p8
(I0
tp9
S'b'
p10
tp11
Rp12
(I1
(I360
tp13
cnumpy
dtype
p14
(S'O8'
p15
I0
I1
tp16
Rp17
(I3
S'|'
p18
NNNI-1
I-1
I63
tp19
bI00
(lp20
S'10'
p21
aS'11'
p22
aS'12'
p23
aS'15'
p24
aS'about_us'
p25
aS'accept_decline'
p26
aS'account'
p27
aS'acculynk_bin_check_failed'
p28
aS'acculynk_bin_check_success'
p29
aS'acculynk_load_pin_pad'
p30
aS'acculynk_pin_pad_error'
p31
aS'acculynk_pin_pad_inactive'
p32
aS'acculynk_pin_pad_success'
p33
aS'acculynk_session_obtained'
p34
aS'active'
p35
aS'add_business_address_colorbox'
p36
aS'add_guest_colorbox'
p37
aS'add_guests'
p38
aS'add_note'
p39
aS'agree_terms_check'
p40
aS'agree_terms_uncheck'
p41
aS'airbnb_picks'
p42
aS'airbrb'
p43
aS'ajax_check_dates'
p44
aS'ajax_get_referrals_amt'
p45
aS'ajax_get_results'
p46
aS'ajax_google_translate'
p47
aS'ajax_google_translate_description'
p48
aS'ajax_google_translate_reviews'
p49
aS'ajax_image_upload'
p50
aS'ajax_ldp'
p51
aS'ajax_lwlb_contact'
p52
aS'ajax_payout_edit'
p53
aS'ajax_payout_options_by_country'
p54
aS'ajax_payout_split_edit'
p55
aS'ajax_photo_widget'
p56
aS'ajax_photo_widget_form_iframe'
p57
aS'ajax_price_and_availability'
p58
aS'ajax_referral_banner_experiment_type'
p59
aS'ajax_referral_banner_type'
p60
aS'ajax_refresh_subtotal'
p61
aS'ajax_send_message'
p62
aS'ajax_special_offer_dates_available'
p63
aS'ajax_statsd'
p64
aS'ajax_worth'
p65
aS'apply'
p66
aS'apply_code'
p67
aS'apply_coupon_click'
p68
aS'apply_coupon_click_success'
p69
aS'apply_coupon_error'
p70
aS'apply_coupon_error_type'
p71
aS'apply_reservation'
p72
aS'approve'
p73
aS'ask_question'
p74
aS'at_checkpoint'
p75
aS'authenticate'
p76
aS'authorize'
p77
aS'available'
p78
aS'badge'
p79
aS'become_user'
p80
aS'book'
p81
aS'booking'
p82
aS'braintree_client_token'
p83
aS'business_travel'
p84
aS'calendar_tab_inner2'
p85
aS'callback'
p86
aS'campaigns'
p87
aS'cancel'
p88
aS'cancellation_policies'
p89
aS'cancellation_policy_click'
p90
aS'change'
p91
aS'change_availability'
p92
aS'change_currency'
p93
aS'change_default_payout'
p94
aS'change_password'
p95
aS'check'
p96
aS'city_count'
p97
aS'clear_reservation'
p98
aS'click'
p99
aS'clickthrough'
p100
aS'collections'
p101
aS'complete'
p102
aS'complete_redirect'
p103
aS'complete_status'
p104
aS'concierge'
p105
aS'confirm_email'
p106
aS'confirmation'
p107
aS'connect'
p108
aS'contact_new'
p109
aS'countries'
p110
aS'country_options'
p111
aS'coupon_code_click'
p112
aS'coupon_field_focus'
p113
aS'create'
p114
aS'create_ach'
p115
aS'create_airbnb'
p116
aS'create_multiple'
p117
aS'create_paypal'
p118
aS'currencies'
p119
aS'custom_recommended_destinations'
p120
aS'dashboard'
p121
aS'deactivate'
p122
aS'deactivated'
p123
aS'deauthorize'
p124
aS'decision_tree'
p125
aS'delete'
p126
aS'department'
p127
aS'departments'
p128
aS'desks'
p129
aS'destroy'
p130
aS'detect_fb_session'
p131
aS'disaster_action'
p132
aS'domains'
p133
aS'edit'
p134
aS'edit_verification'
p135
aS'email_by_key'
p136
aS'email_itinerary_colorbox'
p137
aS'email_share'
p138
aS'email_wishlist'
p139
aS'endpoint_error'
p140
aS'envoy_bank_details_redirect'
p141
aS'envoy_form'
p142
aS'events'
p143
aS'facebook_auto_login'
p144
aS'faq'
p145
aS'faq_category'
p146
aS'faq_experiment_ids'
p147
aS'feed'
p148
aS'forgot_password'
p149
aS'founders'
p150
aS'friend_listing'
p151
aS'friends'
p152
aS'friends_new'
p153
aS'glob'
p154
aS'google_importer'
p155
aS'guarantee'
p156
aS'guest_billing_receipt'
p157
aS'guest_booked_elsewhere'
p158
aS'handle_vanity_url'
p159
aS'hard_fallback_submit'
p160
aS'has_profile_pic'
p161
aS'header_userpic'
p162
aS'home_safety_landing'
p163
aS'home_safety_terms'
p164
aS'hospitality'
p165
aS'hospitality_standards'
p166
aS'host_2013'
p167
aS'host_cancel'
p168
aS'host_summary'
p169
aS'hosting_social_proof'
p170
aS'how_it_works'
p171
aS'identity'
p172
aS'image_order'
p173
aS'impressions'
p174
aS'index'
p175
aS'invalid_action'
p176
aS'issue'
p177
aS'itinerary'
p178
aS'jumio'
p179
aS'jumio_redirect'
p180
aS'jumio_token'
p181
aS'kba'
p182
aS'kba_update'
p183
aS'languages_multiselect'
p184
aS'life'
p185
aS'listing'
p186
aS'listings'
p187
aS'load_more'
p188
aS'locale_from_host'
p189
aS'localization_settings'
p190
aS'localized'
p191
aS'locations'
p192
aS'login'
p193
aS'login_modal'
p194
aS'lookup'
p195
aS'manage_listing'
p196
aS'maybe_information'
p197
aS'media_resources'
p198
aS'message'
p199
aS'message_to_host_change'
p200
aS'message_to_host_focus'
p201
aS'mobile_landing_page'
p202
aS'mobile_oauth_callback'
p203
aS'multi'
p204
aS'multi_message'
p205
aS'multi_message_attributes'
p206
aS'my'
p207
aS'my_listings'
p208
aS'my_reservations'
p209
aS'new'
p210
aS'new_host'
p211
aS'new_session'
p212
aS'notifications'
p213
aS'nyan'
p214
aS'office_location'
p215
aS'onenight'
p216
aS'open_graph_setting'
p217
aS'open_hard_fallback_modal'
p218
aS'other_hosting_reviews'
p219
aS'other_hosting_reviews_first'
p220
aS'overview'
p221
aS'p4_refund_policy_terms'
p222
aS'p4_terms'
p223
aS'patch'
p224
aS'pay'
p225
aS'payment_instruments'
p226
aS'payment_methods'
p227
aS'payoneer_account_redirect'
p228
aS'payoneer_signup_complete'
p229
aS'payout_delete'
p230
aS'payout_preferences'
p231
aS'payout_update'
p232
aS'pending'
p233
aS'pending_tickets'
p234
aS'personalize'
p235
aS'phone_number_widget'
p236
aS'phone_verification'
p237
aS'phone_verification_call_taking_too_long'
p238
aS'phone_verification_error'
p239
aS'phone_verification_modal'
p240
aS'phone_verification_number_submitted_for_call'
p241
aS'phone_verification_number_submitted_for_sms'
p242
aS'phone_verification_number_sucessfully_submitted'
p243
aS'phone_verification_phone_number_removed'
p244
aS'phone_verification_success'
p245
aS'photography'
p246
aS'photography_update'
p247
aS'place_worth'
p248
aS'plaxo_cb'
p249
aS'popular'
p250
aS'popular_listing'
p251
aS'populate_from_facebook'
p252
aS'populate_help_dropdown'
p253
aS'position'
p254
aS'preapproval'
p255
aS'press_content'
p256
aS'press_news'
p257
aS'press_release'
p258
aS'pricing'
p259
aS'print_confirmation'
p260
aS'privacy'
p261
aS'profile_pic'
p262
aS'push_notification_callback'
p263
aS'qt2'
p264
aS'qt_reply_v2'
p265
aS'qt_with'
p266
aS'questions'
p267
aS'rate'
p268
aS'reactivate'
p269
aS'read_policy_click'
p270
aS'receipt'
p271
aS'recent_reservations'
p272
aS'recommend'
p273
aS'recommendation_page'
p274
aS'recommendations'
p275
aS'recommended_listings'
p276
aS'redirect'
p277
aS'references'
p278
aS'referrer_status'
p279
aS'refund_guest_cancellation'
p280
aS'relationship'
p281
aS'remove_dashboard_alert'
p282
aS'rentals'
p283
aS'report'
p284
aS'reputation'
p285
aS'request_new_confirm_email'
p286
aS'request_photography'
p287
aS'requested'
p288
aS'requirements'
p289
aS'reservation'
p290
aS'reset_calendar'
p291
aS'respond'
p292
aS'rest-of-world'
p293
aS'revert_to_admin'
p294
aS'review_page'
p295
aS'reviews'
p296
aS'reviews_new'
p297
aS'salute'
p298
aS'sandy'
p299
aS'satisfy'
p300
aS'search'
p301
aS'search_results'
p302
aS'set_default'
p303
aS'set_minimum_payout_amount'
p304
aS'set_password'
p305
aS'set_user'
p306
aS'settings'
p307
aS'show'
p308
aS'show_code'
p309
aS'show_personalize'
p310
aS'signature'
p311
aS'signed_out_modal'
p312
aS'signup_login'
p313
aS'signup_modal'
p314
aS'signup_weibo'
p315
aS'signup_weibo_referral'
p316
aS'similar_listings'
p317
aS'similar_listings_v2'
p318
aS'sldf'
p319
aS'slideshow'
p320
aS'social'
p321
aS'social-media'
p322
aS'social_connections'
p323
aS'south-america'
p324
aS'southern-europe'
p325
aS'special_offer'
p326
aS'spoken_languages'
p327
aS'status'
p328
aS'stpcv'
p329
aS'sublets'
p330
aS'submit_contact'
p331
aS'support_phone_numbers'
p332
aS'supported'
p333
aS'sync'
p334
aS'tell_a_friend'
p335
aS'terms'
p336
aS'terms_and_conditions'
p337
aS'this_hosting_reviews'
p338
aS'this_hosting_reviews_3000'
p339
aS'toggle_archived_thread'
p340
aS'toggle_availability'
p341
aS'toggle_starred_thread'
p342
aS'top_destinations'
p343
aS'tos_2014'
p344
aS'tos_confirm'
p345
aS'track_activity'
p346
aS'track_page_view'
p347
aS'transaction_history'
p348
aS'transaction_history_paginated'
p349
aS'travel'
p350
aS'travel_plans_current'
p351
aS'travel_plans_previous'
p352
aS'trust'
p353
aS'unavailabilities'
p354
aS'undef'
p355
aS'united-states'
p356
aS'unread'
p357
aS'unsubscribe'
p358
aS'update'
p359
aS'update_cached'
p360
aS'update_country_of_residence'
p361
aS'update_friends_display'
p362
aS'update_hide_from_search_engines'
p363
aS'update_message'
p364
aS'update_notifications'
p365
aS'update_reservation_requirements'
p366
aS'upload'
p367
aS'uptodate'
p368
aS'use_mobile_site'
p369
aS'verify'
p370
aS'view'
p371
aS'views'
p372
aS'views_campaign'
p373
aS'views_campaign_rules'
p374
aS'webcam_upload'
p375
aS'weibo_signup_referral_finish'
p376
aS'why_host'
p377
aS'widget'
p378
aS'wishlists'
p379
aS'zendesk_login_jwt'
p380
atp381
bsb.