ccopy_reg
_reconstructor
p0
(csklearn.preprocessing.label
LabelEncoder
p1
c__builtin__
object
p2
Ntp3
Rp4
(dp5
S'classes_'
p6
cnumpy.core.multiarray
_reconstruct
p7
(cnumpy
ndarray
p8
(I0
tp9
S'b'
p10
tp11
Rp12
(I1
(I55
tp13
cnumpy
dtype
p14
(S'O8'
p15
I0
I1
tp16
Rp17
(I3
S'|'
p18
NNNI-1
I-1
I63
tp19
bI00
(lp20
S'-unknown-'
p21
aS'AOL Explorer'
p22
aS'Android Browser'
p23
aS'Apple Mail'
p24
aS'Arora'
p25
aS'Avant Browser'
p26
aS'BlackBerry Browser'
p27
aS'Camino'
p28
aS'Chrome'
p29
aS'Chrome Mobile'
p30
aS'Chromium'
p31
aS'CometBird'
p32
aS'Comodo Dragon'
p33
aS'Conkeror'
p34
aS'CoolNovo'
p35
aS'Crazy Browser'
p36
aS'Epic'
p37
aS'Firefox'
p38
aS'Flock'
p39
aS'Google Earth'
p40
aS'Googlebot'
p41
aS'IBrowse'
p42
aS'IE'
p43
aS'IE Mobile'
p44
aS'IceDragon'
p45
aS'IceWeasel'
p46
aS'Iron'
p47
aS'Kindle Browser'
p48
aS'Maxthon'
p49
aS'Mobile Firefox'
p50
aS'Mobile Safari'
p51
aS'Mozilla'
p52
aS'NetNewsWire'
p53
aS'Nintendo Browser'
p54
aS'OmniWeb'
p55
aS'Opera'
p56
aS'Opera Mini'
p57
aS'Opera Mobile'
p58
aS'Outlook 2007'
p59
aS'PS Vita browser'
p60
aS'Pale Moon'
p61
aS'Palm Pre web browser'
p62
aS'RockMelt'
p63
aS'Safari'
p64
aS'SeaMonkey'
p65
aS'Silk'
p66
aS'SiteKiosk'
p67
aS'SlimBrowser'
p68
aS'Sogou Explorer'
p69
aS'Stainless'
p70
aS'TenFourFox'
p71
aS'TheWorld Browser'
p72
aS'UC Browser'
p73
aS'Yandex.Browser'
p74
aS'wOSBrowser'
p75
atp76
bsb.