ccopy_reg
_reconstructor
p0
(csklearn.preprocessing.label
LabelEncoder
p1
c__builtin__
object
p2
Ntp3
Rp4
(dp5
S'classes_'
p6
cnumpy.core.multiarray
_reconstruct
p7
(cnumpy
ndarray
p8
(I0
tp9
S'b'
p10
tp11
Rp12
(I1
(I156
tp13
cnumpy
dtype
p14
(S'O8'
p15
I0
I1
tp16
Rp17
(I3
S'|'
p18
NNNI-1
I-1
I63
tp19
bI00
(lp20
S'-unknown-'
p21
aS'account_notification_settings'
p22
aS'account_payment_methods'
p23
aS'account_payout_preferences'
p24
aS'account_privacy_settings'
p25
aS'account_transaction_history'
p26
aS'admin_templates'
p27
aS'airbnb_picks_wishlists'
p28
aS'alteration_field'
p29
aS'alteration_request'
p30
aS'apply_coupon'
p31
aS'apply_coupon_click'
p32
aS'apply_coupon_click_success'
p33
aS'apply_coupon_error'
p34
aS'at_checkpoint'
p35
aS'book_it'
p36
aS'booking'
p37
aS'calculate_worth'
p38
aS'cancellation_policies'
p39
aS'cancellation_policy'
p40
aS'cancellation_policy_click'
p41
aS'change_availability'
p42
aS'change_contact_host_dates'
p43
aS'change_or_alter'
p44
aS'change_password'
p45
aS'change_trip_characteristics'
p46
aS'click_about_host'
p47
aS'click_amenities'
p48
aS'click_reviews'
p49
aS'complete_booking'
p50
aS'confirm_email'
p51
aS'confirm_email_link'
p52
aS'contact_host'
p53
aS'coupon_code_click'
p54
aS'coupon_field_focus'
p55
aS'create_alteration_request'
p56
aS'create_listing'
p57
aS'create_payment_instrument'
p58
aS'create_phone_numbers'
p59
aS'create_user'
p60
aS'dashboard'
p61
aS'deactivate_user_account'
p62
aS'delete_listing'
p63
aS'delete_listing_description'
p64
aS'delete_payment_instrument'
p65
aS'delete_phone_numbers'
p66
aS'edit_profile'
p67
aS'email_wishlist'
p68
aS'email_wishlist_button'
p69
aS'forgot_password'
p70
aS'friends_wishlists'
p71
aS'guest_cancellation'
p72
aS'guest_itinerary'
p73
aS'guest_receipt'
p74
aS'header_userpic'
p75
aS'homepage'
p76
aS'host_guarantee'
p77
aS'host_home'
p78
aS'host_refund_guest'
p79
aS'host_respond'
p80
aS'host_respond_page'
p81
aS'host_standard_suspension'
p82
aS'instant_book'
p83
aS'list_your_space'
p84
aS'listing_descriptions'
p85
aS'listing_recommendations'
p86
aS'listing_reviews'
p87
aS'listing_reviews_page'
p88
aS'login'
p89
aS'login_modal'
p90
aS'login_page'
p91
aS'lookup_message_thread'
p92
aS'manage_listing'
p93
aS'message_inbox'
p94
aS'message_post'
p95
aS'message_thread'
p96
aS'message_to_host_change'
p97
aS'message_to_host_focus'
p98
aS'modify_reservations'
p99
aS'modify_users'
p100
aS'move_map'
p101
aS'notifications'
p102
aS'oauth_login'
p103
aS'oauth_response'
p104
aS'p1'
p105
aS'p3'
p106
aS'p4'
p107
aS'p4_refund_policy_terms'
p108
aS'p4_terms'
p109
aS'p5'
p110
aS'payment_instruments'
p111
aS'pending'
p112
aS'phone_numbers'
p113
aS'phone_verification_success'
p114
aS'photos'
p115
aS'place_worth'
p116
aS'popular_wishlists'
p117
aS'post_checkout_action'
p118
aS'previous_trips'
p119
aS'profile_references'
p120
aS'profile_reviews'
p121
aS'profile_verifications'
p122
aS'read_policy_click'
p123
aS'remove_dashboard_alert'
p124
aS'request_new_confirm_email'
p125
aS'request_to_book'
p126
aS'reservations'
p127
aS'respond_to_alteration_request'
p128
aS'send_message'
p129
aS'set_default_payment_instrument'
p130
aS'set_password'
p131
aS'set_password_page'
p132
aS'share'
p133
aS'signup'
p134
aS'signup_login_page'
p135
aS'signup_modal'
p136
aS'similar_listings'
p137
aS'special_offer_field'
p138
aS'terms_and_privacy'
p139
aS'toggle_archived_thread'
p140
aS'toggle_starred_thread'
p141
aS'tos_2014'
p142
aS'translate_listing_reviews'
p143
aS'translations'
p144
aS'trip_availability'
p145
aS'unavailable_dates'
p146
aS'undef'
p147
aS'update_listing'
p148
aS'update_listing_description'
p149
aS'update_user'
p150
aS'update_user_profile'
p151
aS'user_friend_recommendations'
p152
aS'user_languages'
p153
aS'user_listings'
p154
aS'user_profile'
p155
aS'user_profile_content_update'
p156
aS'user_reviews'
p157
aS'user_social_connections'
p158
aS'user_tax_forms'
p159
aS'user_wishlists'
p160
aS'view_ghosting_reasons'
p161
aS'view_ghostings'
p162
aS'view_identity_verifications'
p163
aS'view_listing'
p164
aS'view_locations'
p165
aS'view_reservations'
p166
aS'view_resolutions'
p167
aS'view_search_results'
p168
aS'view_security_checks'
p169
aS'view_user_real_names'
p170
aS'wishlist'
p171
aS'wishlist_content_update'
p172
aS'wishlist_note'
p173
aS'your_listings'
p174
aS'your_reservations'
p175
aS'your_trips'
p176
atp177
bsb.